target datalayout = "e-m:e-p270:32:32-p271:32:32-p272:64:64-i64:64-i128:128-f80:128-n8:16:32:64-S128"
target triple = "x86_64-pc-linux-gnu"

%struct.H5O_linfo_t = type { i8, i8, i64, i64, i64, i64, i64 }
%struct.H5G_link_table_t = type { i64, ptr }
%struct.H5G_dense_bt_ud_t = type { ptr, i64 }

@.str = private unnamed_addr constant [102 x i8] c"generated/home/dtcxzyw/WorkSpace/Projects/compilers/llvm-opt-benchmark/bench/hdf5/hdf5/src/H5Gdense.c\00", align 1
@H5E_SYM_g = external global i64, align 8
@H5E_NOSPACE_g = external global i64, align 8
@__func__.H5G__dense_build_table = private unnamed_addr constant [23 x i8] c"H5G__dense_build_table\00", align 1
@H5E_RESOURCE_g = external global i64, align 8
@.str.29 = private unnamed_addr constant [25 x i8] c"memory allocation failed\00", align 1
@H5E_CANTNEXT_g = external global i64, align 8
@.str.30 = private unnamed_addr constant [27 x i8] c"error iterating over links\00", align 1
@H5E_CANTSORT_g = external global i64, align 8
@.str.31 = private unnamed_addr constant [28 x i8] c"error sorting link messages\00", align 1

; Function Attrs: nounwind uwtable
define i32 @H5G__dense_build_table(ptr noundef %0, ptr noundef %1, i32 noundef %2, i32 noundef %3, ptr noundef %4) #0 {
  %6 = alloca ptr, align 8
  %7 = alloca ptr, align 8
  %8 = alloca i32, align 4
  %9 = alloca i32, align 4
  %10 = alloca ptr, align 8
  %11 = alloca i32, align 4
  %12 = alloca i8, align 1
  %13 = alloca %struct.H5G_dense_bt_ud_t, align 8
  store ptr %0, ptr %6, align 8
  store ptr %1, ptr %7, align 8
  store i32 %2, ptr %8, align 4
  store i32 %3, ptr %9, align 4
  store ptr %4, ptr %10, align 8
  store i32 0, ptr %11, align 4
  store i8 0, ptr %12, align 1
  %14 = load ptr, ptr %7, align 8
  %15 = getelementptr inbounds %struct.H5O_linfo_t, ptr %14, i32 0, i32 4
  %16 = load i64, ptr %15, align 8
  %17 = load ptr, ptr %10, align 8
  %18 = getelementptr inbounds %struct.H5G_link_table_t, ptr %17, i32 0, i32 0
  store i64 %16, ptr %18, align 8
  %19 = load ptr, ptr %10, align 8
  %20 = getelementptr inbounds %struct.H5G_link_table_t, ptr %19, i32 0, i32 0
  %21 = load i64, ptr %20, align 8
  %22 = icmp ugt i64 %21, 0
  br i1 %22, label %23, label %92

23:                                               ; preds = %5
  %24 = load ptr, ptr %10, align 8
  %25 = getelementptr inbounds %struct.H5G_link_table_t, ptr %24, i32 0, i32 0
  %26 = load i64, ptr %25, align 8
  %27 = mul i64 48, %26
  %28 = call noalias ptr @malloc(i64 noundef %27) #8
  %29 = load ptr, ptr %10, align 8
  %30 = getelementptr inbounds %struct.H5G_link_table_t, ptr %29, i32 0, i32 1
  store ptr %28, ptr %30, align 8
  %31 = icmp eq ptr %28, null
  br i1 %31, label %32, label %47

32:                                               ; preds = %23
  br label %33

33:                                               ; preds = %32
  br label %34

34:                                               ; preds = %33
  br label %35

35:                                               ; preds = %34
  %36 = load i64, ptr @H5E_RESOURCE_g, align 8
  %37 = load i64, ptr @H5E_NOSPACE_g, align 8
  %38 = call i32 (ptr, ptr, i32, i64, i64, ptr, ...) @H5E_printf_stack(ptr noundef @.str, ptr noundef @__func__.H5G__dense_build_table, i32 noundef 766, i64 noundef %36, i64 noundef %37, ptr noundef @.str.29)
  br label %39

39:                                               ; preds = %35
  store i8 1, ptr %12, align 1
  %40 = load i8, ptr %12, align 1
  %41 = trunc i8 %40 to i1
  %42 = zext i1 %41 to i8
  store i8 %42, ptr %12, align 1
  br label %43

43:                                               ; preds = %39
  br label %44

44:                                               ; preds = %43
  store i32 -1, ptr %11, align 4
  br label %96

45:                                               ; No predecessors!
  br label %46

46:                                               ; preds = %45
  br label %47

47:                                               ; preds = %46, %23
  %48 = load ptr, ptr %10, align 8
  %49 = getelementptr inbounds %struct.H5G_dense_bt_ud_t, ptr %13, i32 0, i32 0
  store ptr %48, ptr %49, align 8
  %50 = getelementptr inbounds %struct.H5G_dense_bt_ud_t, ptr %13, i32 0, i32 1
  store i64 0, ptr %50, align 8
  %51 = load ptr, ptr %6, align 8
  %52 = load ptr, ptr %7, align 8
  %53 = call i32 @H5G__dense_iterate(ptr noundef %51, ptr noundef %52, i32 noundef 0, i32 noundef 2, i64 noundef 0, ptr noundef null, ptr noundef @H5G__dense_build_table_cb, ptr noundef %13)
  %54 = icmp slt i32 %53, 0
  br i1 %54, label %55, label %70

55:                                               ; preds = %47
  br label %56

56:                                               ; preds = %55
  br label %57

57:                                               ; preds = %56
  br label %58

58:                                               ; preds = %57
  %59 = load i64, ptr @H5E_SYM_g, align 8
  %60 = load i64, ptr @H5E_CANTNEXT_g, align 8
  %61 = call i32 (ptr, ptr, i32, i64, i64, ptr, ...) @H5E_printf_stack(ptr noundef @.str, ptr noundef @__func__.H5G__dense_build_table, i32 noundef 775, i64 noundef %59, i64 noundef %60, ptr noundef @.str.30)
  br label %62

62:                                               ; preds = %58
  store i8 1, ptr %12, align 1
  %63 = load i8, ptr %12, align 1
  %64 = trunc i8 %63 to i1
  %65 = zext i1 %64 to i8
  store i8 %65, ptr %12, align 1
  br label %66

66:                                               ; preds = %62
  br label %67

67:                                               ; preds = %66
  store i32 -1, ptr %11, align 4
  br label %96

68:                                               ; No predecessors!
  br label %69

69:                                               ; preds = %68
  br label %70

70:                                               ; preds = %69, %47
  %71 = load ptr, ptr %10, align 8
  %72 = load i32, ptr %8, align 4
  %73 = load i32, ptr %9, align 4
  %74 = call i32 @H5G__link_sort_table(ptr noundef %71, i32 noundef %72, i32 noundef %73)
  %75 = icmp slt i32 %74, 0
  br i1 %75, label %76, label %91

76:                                               ; preds = %70
  br label %77

77:                                               ; preds = %76
  br label %78

78:                                               ; preds = %77
  br label %79

79:                                               ; preds = %78
  %80 = load i64, ptr @H5E_SYM_g, align 8
  %81 = load i64, ptr @H5E_CANTSORT_g, align 8
  %82 = call i32 (ptr, ptr, i32, i64, i64, ptr, ...) @H5E_printf_stack(ptr noundef @.str, ptr noundef @__func__.H5G__dense_build_table, i32 noundef 779, i64 noundef %80, i64 noundef %81, ptr noundef @.str.31)
  br label %83

83:                                               ; preds = %79
  store i8 1, ptr %12, align 1
  %84 = load i8, ptr %12, align 1
  %85 = trunc i8 %84 to i1
  %86 = zext i1 %85 to i8
  store i8 %86, ptr %12, align 1
  br label %87

87:                                               ; preds = %83
  br label %88

88:                                               ; preds = %87
  store i32 -1, ptr %11, align 4
  br label %96

89:                                               ; No predecessors!
  br label %90

90:                                               ; preds = %89
  br label %91

91:                                               ; preds = %90, %70
  br label %95

92:                                               ; preds = %5
  %93 = load ptr, ptr %10, align 8
  %94 = getelementptr inbounds %struct.H5G_link_table_t, ptr %93, i32 0, i32 1
  store ptr null, ptr %94, align 8
  br label %95

95:                                               ; preds = %92, %91
  br label %96

96:                                               ; preds = %95, %88, %67, %44
  %97 = load i32, ptr %11, align 4
  ret i32 %97
}