; Function Attrs: nounwind uwtable
define range(i32 -1, 1) i32 @H5G__dense_build_table(ptr noundef %0, ptr nocapture noundef readonly %1, i32 noundef %2, i32 noundef %3, ptr noundef %4) local_unnamed_addr #0 {
  %6 = alloca %struct.H5G_dense_bt_ud_t, align 8
  %7 = getelementptr inbounds i8, ptr %1, i64 24
  %8 = load i64, ptr %7, align 8
  store i64 %8, ptr %4, align 8
  %.not = icmp eq i64 %8, 0
  br i1 %.not, label %33, label %9

9:                                                ; preds = %5
  %10 = mul i64 %8, 48
  %11 = tail call noalias ptr @malloc(i64 noundef %10) #10
  %12 = getelementptr inbounds i8, ptr %4, i64 8
  store ptr %11, ptr %12, align 8
  %13 = icmp eq ptr %11, null
  br i1 %13, label %14, label %18

14:                                               ; preds = %9
  %15 = load i64, ptr @H5E_RESOURCE_g, align 8
  %16 = load i64, ptr @H5E_NOSPACE_g, align 8
  %17 = tail call i32 (ptr, ptr, i32, i64, i64, ptr, ...) @H5E_printf_stack(ptr noundef nonnull @.str, ptr noundef nonnull @__func__.H5G__dense_build_table, i32 noundef 766, i64 noundef %15, i64 noundef %16, ptr noundef nonnull @.str.29) #8
  br label %35

18:                                               ; preds = %9
  store ptr %4, ptr %6, align 8
  %19 = getelementptr inbounds i8, ptr %6, i64 8
  store i64 0, ptr %19, align 8
  %20 = call i32 @H5G__dense_iterate(ptr noundef %0, ptr noundef nonnull %1, i32 noundef 0, i32 noundef 2, i64 noundef 0, ptr noundef null, ptr noundef nonnull @H5G__dense_build_table_cb, ptr noundef nonnull %6)
  %21 = icmp slt i32 %20, 0
  br i1 %21, label %22, label %26

22:                                               ; preds = %18
  %23 = load i64, ptr @H5E_SYM_g, align 8
  %24 = load i64, ptr @H5E_CANTNEXT_g, align 8
  %25 = call i32 (ptr, ptr, i32, i64, i64, ptr, ...) @H5E_printf_stack(ptr noundef nonnull @.str, ptr noundef nonnull @__func__.H5G__dense_build_table, i32 noundef 775, i64 noundef %23, i64 noundef %24, ptr noundef nonnull @.str.30) #8
  br label %35

26:                                               ; preds = %18
  %27 = call i32 @H5G__link_sort_table(ptr noundef nonnull %4, i32 noundef %2, i32 noundef %3) #8
  %28 = icmp slt i32 %27, 0
  br i1 %28, label %29, label %35

29:                                               ; preds = %26
  %30 = load i64, ptr @H5E_SYM_g, align 8
  %31 = load i64, ptr @H5E_CANTSORT_g, align 8
  %32 = call i32 (ptr, ptr, i32, i64, i64, ptr, ...) @H5E_printf_stack(ptr noundef nonnull @.str, ptr noundef nonnull @__func__.H5G__dense_build_table, i32 noundef 779, i64 noundef %30, i64 noundef %31, ptr noundef nonnull @.str.31) #8
  br label %35

33:                                               ; preds = %5
  %34 = getelementptr inbounds i8, ptr %4, i64 8
  store ptr null, ptr %34, align 8
  br label %35

35:                                               ; preds = %33, %26, %29, %22, %14
  %.0 = phi i32 [ -1, %14 ], [ -1, %22 ], [ -1, %29 ], [ 0, %26 ], [ 0, %33 ]
  ret i32 %.0
}